; Function Attrs: mustprogress uwtable
define noundef ptr @_ZN7rocksdb15BlockBasedTable25NewRangeTombstoneIteratorEmPKNS_5SliceE(ptr nocapture noundef nonnull readonly align 8 dereferenceable(24) %this, i64 noundef %read_seqno, ptr noundef %timestamp) unnamed_addr #3 align 2 personality ptr @__gxx_personality_v0 {
entry:
  %rep_ = getelementptr inbounds i8, ptr %this, i64 8
  %0 = load ptr, ptr %rep_, align 8
  %fragmented_range_dels = getelementptr inbounds i8, ptr %0, i64 536
  %1 = load ptr, ptr %fragmented_range_dels, align 8
  %cmp.i.not.i = icmp eq ptr %1, null
  br i1 %cmp.i.not.i, label %return, label %if.end

if.end:                                           ; preds = %entry
  %call2 = tail call noalias noundef nonnull dereferenceable(200) ptr @_Znwm(i64 noundef 200) #32
  %internal_comparator = getelementptr inbounds i8, ptr %0, i64 272
  %2 = load ptr, ptr %internal_comparator, align 8
  invoke void @_ZN7rocksdb32FragmentedRangeTombstoneIteratorC1ERKSt10shared_ptrINS_28FragmentedRangeTombstoneListEERKNS_21InternalKeyComparatorEmPKNS_5SliceEm(ptr noundef nonnull align 8 dereferenceable(200) %call2, ptr noundef nonnull align 8 dereferenceable(16) %fragmented_range_dels, ptr noundef nonnull align 8 dereferenceable(16) %2, i64 noundef %read_seqno, ptr noundef %timestamp, i64 noundef 0)
          to label %return unwind label %lpad

lpad:                                             ; preds = %if.end
  %3 = landingpad { ptr, i32 }
          cleanup
  tail call void @_ZdlPv(ptr noundef nonnull %call2) #30
  resume { ptr, i32 } %3

return:                                           ; preds = %if.end, %entry
  %retval.0 = phi ptr [ null, %entry ], [ %call2, %if.end ]
  ret ptr %retval.0
}